target datalayout = "e-m:e-p270:32:32-p271:32:32-p272:64:64-i64:64-i128:128-f80:128-n8:16:32:64-S128"
target triple = "x86_64-pc-linux-gnu"

%"struct.vcpkg::PrintingDiagnosticContext" = type { %"struct.vcpkg::DiagnosticContext", ptr }
%"struct.vcpkg::DiagnosticContext" = type { ptr }

; Function Attrs: mustprogress uwtable
define dso_local void @_ZN5vcpkg25PrintingDiagnosticContext8statuslnERKNS_15LocalizedStringE(ptr noundef nonnull align 8 dereferenceable(16) %0, ptr noundef nonnull align 8 dereferenceable(32) %1) unnamed_addr #0 align 2 {
  %3 = alloca ptr, align 8
  %4 = alloca ptr, align 8
  store ptr %0, ptr %3, align 8, !tbaa !72
  store ptr %1, ptr %4, align 8, !tbaa !64
  %5 = load ptr, ptr %3, align 8
  %6 = getelementptr inbounds nuw %"struct.vcpkg::PrintingDiagnosticContext", ptr %5, i32 0, i32 1
  %7 = load ptr, ptr %6, align 8, !tbaa !74
  %8 = load ptr, ptr %4, align 8, !tbaa !64
  %9 = load ptr, ptr %7, align 8, !tbaa !11
  %10 = getelementptr inbounds ptr, ptr %9, i64 2
  %11 = load ptr, ptr %10, align 8
  call void %11(ptr noundef nonnull align 8 dereferenceable(8) %7, ptr noundef nonnull align 8 dereferenceable(32) %8)
  ret void
}